Certificate:
    Data:
        Version: 3 (0x2)
        Serial Number: 2 (0x2)
        Signature Algorithm: sha256WithRSAEncryption
        Issuer: CN=devcert
        Validity
            Not Before: Jan 13 22:29:37 2021 GMT
            Not After : Apr 18 22:29:37 2023 GMT
        Subject: CN=snowpack
        Subject Public Key Info:
            Public Key Algorithm: rsaEncryption
                RSA Public-Key: (2048 bit)
                Modulus:
                    00:e5:b2:33:1d:8e:4b:1c:44:36:5d:d6:6b:03:0f:
                    5d:f9:10:ec:a2:91:c9:87:9c:8a:6b:32:b7:6d:52:
                    c4:f4:af:39:93:23:cc:7b:ed:1b:54:c4:a2:f9:7e:
                    c8:e4:71:d1:19:2a:07:64:b6:b0:3c:de:a7:5b:92:
                    a4:e9:0a:15:03:f6:f5:cf:f6:20:88:f8:82:67:00:
                    fb:b6:04:aa:29:28:ca:b1:f0:a8:82:84:50:89:91:
                    eb:53:9c:ba:3f:82:80:36:aa:53:c2:16:9f:0b:c2:
                    33:cd:c2:f5:f4:b5:f8:3d:eb:47:20:39:9c:d9:58:
                    6c:6b:2f:83:8d:65:f1:14:c8:01:9a:b4:9b:d8:01:
                    46:5d:0a:a0:37:16:8e:46:b3:0f:a2:7e:59:bb:11:
                    c2:21:b9:f8:be:3c:a0:c0:f2:9a:be:c0:6b:3e:d9:
                    8d:0d:6c:6a:52:7f:fe:95:b8:dd:22:0a:63:34:ef:
                    fd:24:8e:df:06:a3:a5:5f:06:4f:95:2f:96:a8:66:
                    35:04:af:7f:de:3a:76:2e:4f:bb:b6:ff:ee:cf:93:
                    e6:5a:d4:22:28:f4:d8:8a:e7:44:79:55:de:b8:d5:
                    5b:bc:6c:df:9c:19:d2:60:22:60:e2:f8:98:19:e5:
                    0c:26:62:96:35:7d:a8:5e:f1:e5:c4:79:88:f3:71:
                    ad:e9
                Exponent: 65537 (0x10001)
        X509v3 extensions:
            X509v3 Basic Constraints: critical
                CA:FALSE
            X509v3 Subject Key Identifier: 
                22:C2:A0:D1:E7:57:73:EF:EA:80:BD:96:14:F6:EB:2E:2A:C5:1F:02
            X509v3 Authority Key Identifier: 
                keyid:40:74:54:4C:74:F9:68:75:2E:E7:35:53:54:F4:FD:40:57:9D:BD:4C
                DirName:/CN=devcert
                serial:41:0A:3C:24:23:78:82:AD:EE:67:85:5B:45:ED:67:D5:B4:A1:BF:8F

            X509v3 Key Usage: critical
                Digital Signature, Key Encipherment
            X509v3 Extended Key Usage: 
                TLS Web Server Authentication
            X509v3 Subject Alternative Name: 
                DNS:snowpack, DNS:*.snowpack
    Signature Algorithm: sha256WithRSAEncryption
         3a:7a:a3:2e:ff:cb:25:c0:ca:ae:b8:21:05:a5:f8:7f:0b:f0:
         1f:49:0b:68:1a:b3:49:44:5e:10:5f:9c:16:3b:d5:27:32:30:
         ab:b8:57:49:62:3e:29:19:68:e5:66:40:52:4b:ad:bc:86:45:
         fe:05:0a:4c:7b:eb:79:a7:2f:43:4b:e2:0b:f3:0a:55:3b:7d:
         ca:17:2a:c7:48:3c:e1:21:2d:1c:e5:16:c0:d2:64:9c:20:52:
         11:62:99:ea:50:44:8a:7b:b5:48:0a:77:26:b3:21:a8:5b:b4:
         89:68:56:29:d3:ee:67:cc:2b:b5:7b:b9:56:2a:98:d6:d2:72:
         4a:40:18:b5:bf:6b:9b:17:3b:c9:96:06:1f:ce:d3:70:3e:d9:
         d3:67:fd:c1:3c:eb:53:e2:b6:7c:18:c0:31:7d:b1:15:f8:c6:
         bb:09:90:a3:1e:b7:1d:68:21:56:b2:c2:d6:ba:9d:31:12:bd:
         ff:fe:72:45:7b:b9:87:6e:3a:e2:4d:13:bd:5f:7d:00:a6:cb:
         84:a7:9b:77:bd:12:e2:92:71:07:08:d6:56:4c:00:13:8f:92:
         09:b3:39:6c:39:0e:3a:58:56:e5:80:91:ce:31:55:dc:a1:a3:
         27:33:fb:0b:6d:6a:c3:d1:d8:eb:6c:9b:22:8e:25:45:f2:95:
         27:ca:12:33
-----BEGIN CERTIFICATE-----
MIIDZjCCAk6gAwIBAgIBAjANBgkqhkiG9w0BAQsFADASMRAwDgYDVQQDDAdkZXZj
ZXJ0MB4XDTIxMDExMzIyMjkzN1oXDTIzMDQxODIyMjkzN1owEzERMA8GA1UEAwwI
c25vd3BhY2swggEiMA0GCSqGSIb3DQEBAQUAA4IBDwAwggEKAoIBAQDlsjMdjksc
RDZd1msDD135EOyikcmHnIprMrdtUsT0rzmTI8x77RtUxKL5fsjkcdEZKgdktrA8
3qdbkqTpChUD9vXP9iCI+IJnAPu2BKopKMqx8KiChFCJketTnLo/goA2qlPCFp8L
wjPNwvX0tfg960cgOZzZWGxrL4ONZfEUyAGatJvYAUZdCqA3Fo5Gsw+iflm7EcIh
ufi+PKDA8pq+wGs+2Y0NbGpSf/6VuN0iCmM07/0kjt8Go6VfBk+VL5aoZjUEr3/e
OnYuT7u2/+7Pk+Za1CIo9NiK50R5Vd641Vu8bN+cGdJgImDi+JgZ5QwmYpY1fahe
8eXEeYjzca3pAgMBAAGjgcUwgcIwDAYDVR0TAQH/BAIwADAdBgNVHQ4EFgQUIsKg
0edXc+/qgL2WFPbrLirFHwIwTQYDVR0jBEYwRIAUQHRUTHT5aHUu5zVTVPT9QFed
vUyhFqQUMBIxEDAOBgNVBAMMB2RldmNlcnSCFEEKPCQjeIKt7meFW0XtZ9W0ob+P
MA4GA1UdDwEB/wQEAwIFoDATBgNVHSUEDDAKBggrBgEFBQcDATAfBgNVHREEGDAW
gghzbm93cGFja4IKKi5zbm93cGFjazANBgkqhkiG9w0BAQsFAAOCAQEAOnqjLv/L
JcDKrrghBaX4fwvwH0kLaBqzSUReEF+cFjvVJzIwq7hXSWI+KRlo5WZAUkutvIZF
/gUKTHvreacvQ0viC/MKVTt9yhcqx0g84SEtHOUWwNJknCBSEWKZ6lBEinu1SAp3
JrMhqFu0iWhWKdPuZ8wrtXu5ViqY1tJySkAYtb9rmxc7yZYGH87TcD7Z02f9wTzr
U+K2fBjAMX2xFfjGuwmQox63HWghVrLC1rqdMRK9//5yRXu5h2464k0TvV99AKbL
hKebd70S4pJxBwjWVkwAE4+SCbM5bDkOOlhW5YCRzjFV3KGjJzP7C21qw9HY62yb
Io4lRfKVJ8oSMw==
-----END CERTIFICATE-----
